(S'5e8718907d0003a0b02a0ea6e4032793'
p1
(ihappydoclib.parseinfo.moduleinfo
ModuleInfo
p2
(dp3
S'_namespaces'
p4
((dp5
S'GnuplotOpts'
p6
(ihappydoclib.parseinfo.classinfo
ClassInfo
p7
(dp8
g4
((dp9
(dp10
tp11
sS'_filename'
p12
S'Gnuplot/gp_win32.py'
p13
sS'_docstring'
p14
S''
sS'_class_member_info'
p15
(lp16
sS'_name'
p17
g6
sS'_parent'
p18
g2
sS'_comment_info'
p19
(dp20
(S'test_persist'
tp21
S" Mac doesn't recognize persist.\n"
p22
ssS'_base_class_info'
p23
(lp24
sS'_configuration_values'
p25
(dp26
sS'_class_info'
p27
g9
sS'_function_info'
p28
g10
sS'_comments'
p29
S''
sbsS'GnuplotProcess'
p30
(ihappydoclib.parseinfo.classinfo
ClassInfo
p31
(dp32
g4
((dp33
(dp34
S'__del__'
p35
(ihappydoclib.parseinfo.functioninfo
FunctionInfo
p36
(dp37
g4
((dp38
(dp39
tp40
sS'_exception_info'
p41
(dp42
sS'_parameter_names'
p43
(S'self'
p44
tp45
sS'_parameter_info'
p46
(dp47
g44
(NNNtp48
ssg12
g13
sg14
S''
sg17
g35
sg18
g31
sg19
g20
sg25
(dp49
sg27
g38
sg28
g39
sg29
S''
sbsS'close'
p50
(ihappydoclib.parseinfo.functioninfo
FunctionInfo
p51
(dp52
g4
((dp53
(dp54
tp55
sg41
(dp56
sg43
(S'self'
p57
tp58
sg46
(dp59
g57
(NNNtp60
ssg12
g13
sg14
S''
sg17
g50
sg18
g31
sg19
g20
sg25
(dp61
sg27
g53
sg28
g54
sg29
S''
sbsS'__init__'
p62
(ihappydoclib.parseinfo.functioninfo
FunctionInfo
p63
(dp64
g4
((dp65
(dp66
tp67
sg41
(dp68
S"Errors.OptionError( '-persist is not supported under Windows!' )"
p69
Nssg43
(S'self'
p70
S'persist'
p71
tp72
sg46
(dp73
g70
(NNNtp74
sg71
(I1
NNtp75
ssg12
g13
sg14
S''
sg17
g62
sg18
g31
sg19
g20
sg25
(dp76
sg27
g65
sg28
g66
sg29
S''
sbsS'__call__'
p77
(ihappydoclib.parseinfo.functioninfo
FunctionInfo
p78
(dp79
g4
((dp80
(dp81
tp82
sg41
(dp83
sg43
(S'self'
p84
S's'
tp85
sg46
(dp86
g84
(NNNtp87
sS's'
(NNNtp88
ssg12
g13
sg14
S''
sg17
g77
sg18
g31
sg19
g20
sg25
(dp89
sg27
g80
sg28
g81
sg29
S''
sbstp90
sg12
g13
sg14
S''
sg15
(lp91
sg17
g30
sg18
g2
sg19
g20
sg23
(lp92
sg25
(dp93
sg27
g33
sg28
g34
sg29
S''
sbs(dp94
S'test_persist'
p95
(ihappydoclib.parseinfo.functioninfo
FunctionInfo
p96
(dp97
g4
((dp98
(dp99
tp100
sg41
(dp101
sg43
(tsg46
(dp102
sg12
g13
sg14
S''
sg17
g95
sg18
g2
sg19
g20
sg25
(dp103
sg27
g98
sg28
g99
sg29
g22
sbstp104
sS'_import_info'
p105
(ihappydoclib.parseinfo.imports
ImportInfo
p106
(dp107
S'_named_imports'
p108
(dp109
sS'_straight_imports'
p110
(lp111
sbsg12
g13
sg14
S''
sg17
S'gp_win32'
p112
sg18
Nsg19
g20
sg25
(dp113
S'include_comments'
p114
I1
sS'cacheFilePrefix'
p115
S'.happydoc.'
p116
sS'useCache'
p117
I1
sS'docStringFormat'
p118
S'StructuredText'
p119
ssg27
g5
sg28
g94
sg29
S''
sbt.