(S'6d2b7c1b77527f76568cdc78bfc54ed5'
p1
(ihappydoclib.parseinfo.moduleinfo
ModuleInfo
p2
(dp3
S'_namespaces'
p4
((dp5
S'GnuplotOpts'
p6
(ihappydoclib.parseinfo.classinfo
ClassInfo
p7
(dp8
g4
((dp9
(dp10
tp11
sS'_filename'
p12
S'Gnuplot/gp_macosx.py'
p13
sS'_docstring'
p14
S''
sS'_class_member_info'
p15
(lp16
sS'_name'
p17
g6
sS'_parent'
p18
g2
sS'_comment_info'
p19
(dp20
sS'_base_class_info'
p21
(lp22
sS'_configuration_values'
p23
(dp24
sS'_class_info'
p25
g9
sS'_function_info'
p26
g10
sS'_comments'
p27
S''
sbsS'GnuplotProcess'
p28
(ihappydoclib.parseinfo.classinfo
ClassInfo
p29
(dp30
g4
((dp31
(dp32
S'__del__'
p33
(ihappydoclib.parseinfo.functioninfo
FunctionInfo
p34
(dp35
g4
((dp36
(dp37
tp38
sS'_exception_info'
p39
(dp40
sS'_parameter_names'
p41
(S'self'
p42
tp43
sS'_parameter_info'
p44
(dp45
g42
(NNNtp46
ssg12
g13
sg14
S''
sg17
g33
sg18
g29
sg19
g20
sg23
(dp47
sg25
g36
sg26
g37
sg27
S''
sbsS'close'
p48
(ihappydoclib.parseinfo.functioninfo
FunctionInfo
p49
(dp50
g4
((dp51
(dp52
tp53
sg39
(dp54
sg41
(S'self'
p55
tp56
sg44
(dp57
g55
(NNNtp58
ssg12
g13
sg14
S''
sg17
g48
sg18
g29
sg19
g20
sg23
(dp59
sg25
g51
sg26
g52
sg27
S''
sbsS'__init__'
p60
(ihappydoclib.parseinfo.functioninfo
FunctionInfo
p61
(dp62
g4
((dp63
(dp64
tp65
sg39
(dp66
S"( '-persist does not seem to be supported ' 'by your version of gnuplot!' )"
p67
Nssg41
(S'self'
p68
S'persist'
p69
tp70
sg44
(dp71
g68
(NNNtp72
sg69
(I1
NNtp73
ssg12
g13
sg14
S''
sg17
g60
sg18
g29
sg19
g20
sg23
(dp74
sg25
g63
sg26
g64
sg27
S''
sbsS'__call__'
p75
(ihappydoclib.parseinfo.functioninfo
FunctionInfo
p76
(dp77
g4
((dp78
(dp79
tp80
sg39
(dp81
sg41
(S'self'
p82
S's'
tp83
sg44
(dp84
g82
(NNNtp85
sS's'
(NNNtp86
ssg12
g13
sg14
S''
sg17
g75
sg18
g29
sg19
g20
sg23
(dp87
sg25
g78
sg26
g79
sg27
S''
sbstp88
sg12
g13
sg14
S''
sg15
(lp89
sg17
g28
sg18
g2
sg19
g20
sg21
(lp90
sg23
(dp91
sg25
g31
sg26
g32
sg27
S''
sbs(dp92
S'test_persist'
p93
(ihappydoclib.parseinfo.functioninfo
FunctionInfo
p94
(dp95
g4
((dp96
(dp97
tp98
sg39
(dp99
sg41
(tsg44
(dp100
sg12
g13
sg14
S''
sg17
g93
sg18
g2
sg19
g20
sg23
(dp101
sg25
g96
sg26
g97
sg27
S''
sbstp102
sS'_import_info'
p103
(ihappydoclib.parseinfo.imports
ImportInfo
p104
(dp105
S'_named_imports'
p106
(dp107
sS'_straight_imports'
p108
(lp109
sbsg12
g13
sg14
S''
sg17
S'gp_macosx'
p110
sg18
Nsg19
g20
sg23
(dp111
S'include_comments'
p112
I1
sS'cacheFilePrefix'
p113
S'.happydoc.'
p114
sS'useCache'
p115
I1
sS'docStringFormat'
p116
S'StructuredText'
p117
ssg25
g5
sg26
g92
sg27
S''
sbt.