(S'f96a49da377e57624f728dea0d54e9a8'
p1
(ihappydoclib.parseinfo.moduleinfo
ModuleInfo
p2
(dp3
S'_namespaces'
p4
((dp5
(dp6
S'compute_Data'
p7
(ihappydoclib.parseinfo.functioninfo
FunctionInfo
p8
(dp9
g4
((dp10
(dp11
tp12
sS'_exception_info'
p13
(dp14
sS'_parameter_names'
p15
(S'xvals'
p16
S'f'
S'ufunc'
p17
S'**keyw'
p18
tp19
sS'_parameter_info'
p20
(dp21
g16
(NNNtp22
sg17
(I1
NNtp23
sg18
(NNNtp24
sS'f'
(NNNtp25
ssS'_filename'
p26
S'Gnuplot/funcutils.py'
p27
sS'_docstring'
p28
S''
sS'_name'
p29
g7
sS'_parent'
p30
g2
sS'_comment_info'
p31
(dp32
(S'GridFunc'
tp33
S' For backwards compatibility:\n'
p34
ssS'_configuration_values'
p35
(dp36
sS'_class_info'
p37
g10
sS'_function_info'
p38
g11
sS'_comments'
p39
S''
sbsS'tabulate_function'
p40
(ihappydoclib.parseinfo.functioninfo
FunctionInfo
p41
(dp42
g4
((dp43
(dp44
tp45
sg13
(dp46
sg15
(S'f'
S'xvals'
p47
S'yvals'
p48
S'dtype'
p49
S'ufunc'
p50
tp51
sg20
(dp52
g47
(NNNtp53
sg50
(I1
NNtp54
sg48
(I1
NNtp55
sg49
(I1
NNtp56
sS'f'
(NNNtp57
ssg26
g27
sg28
S''
sg29
g40
sg30
g2
sg31
g32
sg35
(dp58
sg37
g43
sg38
g44
sg39
S''
sbsS'GridFunc'
p59
(ihappydoclib.parseinfo.functioninfo
FunctionInfo
p60
(dp61
g4
((dp62
(dp63
tp64
sg13
(dp65
sg15
(S'f'
S'xvals'
p66
S'yvals'
p67
S'**keyw'
p68
tp69
sg20
(dp70
g66
(NNNtp71
sg68
(NNNtp72
sg67
(NNNtp73
sS'f'
(NNNtp74
ssg26
g27
sg28
S''
sg29
g59
sg30
g2
sg31
g32
sg35
(dp75
sg37
g62
sg38
g63
sg39
g34
sbsS'compute_GridData'
p76
(ihappydoclib.parseinfo.functioninfo
FunctionInfo
p77
(dp78
g4
((dp79
(dp80
tp81
sg13
(dp82
sg15
(S'xvals'
p83
S'yvals'
p84
S'f'
S'ufunc'
p85
S'**keyw'
p86
tp87
sg20
(dp88
g83
(NNNtp89
sg85
(I1
NNtp90
sg84
(NNNtp91
sg86
(NNNtp92
sS'f'
(NNNtp93
ssg26
g27
sg28
S''
sg29
g76
sg30
g2
sg31
g32
sg35
(dp94
sg37
g79
sg38
g80
sg39
S''
sbstp95
sS'_import_info'
p96
(ihappydoclib.parseinfo.imports
ImportInfo
p97
(dp98
S'_named_imports'
p99
(dp100
sS'_straight_imports'
p101
(lp102
sbsg26
g27
sg28
S''
sg29
S'funcutils'
p103
sg30
Nsg31
g32
sg35
(dp104
S'include_comments'
p105
I1
sS'cacheFilePrefix'
p106
S'.happydoc.'
p107
sS'useCache'
p108
I1
sS'docStringFormat'
p109
S'StructuredText'
p110
ssg37
g5
sg38
g6
sg39
S''
sbt.