(S'7da6d3de39aee2e2cc2f6fe35c33c340'
p1
(ihappydoclib.parseinfo.moduleinfo
ModuleInfo
p2
(dp3
S'_namespaces'
p4
((dp5
S'GnuplotOpts'
p6
(ihappydoclib.parseinfo.classinfo
ClassInfo
p7
(dp8
g4
((dp9
(dp10
tp11
sS'_filename'
p12
S'Gnuplot/gp_java.py'
p13
sS'_docstring'
p14
S''
sS'_class_member_info'
p15
(lp16
sS'_name'
p17
g6
sS'_parent'
p18
g2
sS'_comment_info'
p19
(dp20
sS'_base_class_info'
p21
(lp22
sS'_configuration_values'
p23
(dp24
sS'_class_info'
p25
g9
sS'_function_info'
p26
g10
sS'_comments'
p27
S''
sbsS'OutputProcessor'
p28
(ihappydoclib.parseinfo.classinfo
ClassInfo
p29
(dp30
g4
((dp31
(dp32
S'run'
p33
(ihappydoclib.parseinfo.functioninfo
FunctionInfo
p34
(dp35
g4
((dp36
(dp37
tp38
sS'_exception_info'
p39
(dp40
sS'_parameter_names'
p41
(S'self'
p42
tp43
sS'_parameter_info'
p44
(dp45
g42
(NNNtp46
ssg12
g13
sg14
S''
sg17
g33
sg18
g29
sg19
g20
sg23
(dp47
sg25
g36
sg26
g37
sg27
S''
sbsS'__init__'
p48
(ihappydoclib.parseinfo.functioninfo
FunctionInfo
p49
(dp50
g4
((dp51
(dp52
tp53
sg39
(dp54
sg41
(S'self'
p55
S'name'
p56
S'input'
p57
S'output'
p58
tp59
sg44
(dp60
g57
(NNNtp61
sg55
(NNNtp62
sg56
(NNNtp63
sg58
(NNNtp64
ssg12
g13
sg14
S''
sg17
g48
sg18
g29
sg19
g20
sg23
(dp65
sg25
g51
sg26
g52
sg27
S''
sbstp66
sg12
g13
sg14
S''
sg15
(lp67
sg17
g28
sg18
g2
sg19
g20
sg21
(lp68
sg23
(dp69
sg25
g31
sg26
g32
sg27
S''
sbsS'GnuplotProcess'
p70
(ihappydoclib.parseinfo.classinfo
ClassInfo
p71
(dp72
g4
((dp73
(dp74
S'__del__'
p75
(ihappydoclib.parseinfo.functioninfo
FunctionInfo
p76
(dp77
g4
((dp78
(dp79
tp80
sg39
(dp81
sg41
(S'self'
p82
tp83
sg44
(dp84
g82
(NNNtp85
ssg12
g13
sg14
S''
sg17
g75
sg18
g71
sg19
g20
sg23
(dp86
sg25
g78
sg26
g79
sg27
S''
sbsS'write'
p87
(ihappydoclib.parseinfo.functioninfo
FunctionInfo
p88
(dp89
g4
((dp90
(dp91
tp92
sg39
(dp93
sg41
(S'self'
p94
S's'
tp95
sg44
(dp96
g94
(NNNtp97
sS's'
(NNNtp98
ssg12
g13
sg14
S''
sg17
g87
sg18
g71
sg19
g20
sg23
(dp99
sg25
g90
sg26
g91
sg27
S''
sbsS'flush'
p100
(ihappydoclib.parseinfo.functioninfo
FunctionInfo
p101
(dp102
g4
((dp103
(dp104
tp105
sg39
(dp106
sg41
(S'self'
p107
tp108
sg44
(dp109
g107
(NNNtp110
ssg12
g13
sg14
S''
sg17
g100
sg18
g71
sg19
g20
sg23
(dp111
sg25
g103
sg26
g104
sg27
S''
sbsS'__call__'
p112
(ihappydoclib.parseinfo.functioninfo
FunctionInfo
p113
(dp114
g4
((dp115
(dp116
tp117
sg39
(dp118
sg41
(S'self'
p119
S's'
tp120
sg44
(dp121
g119
(NNNtp122
sS's'
(NNNtp123
ssg12
g13
sg14
S''
sg17
g112
sg18
g71
sg19
g20
sg23
(dp124
sg25
g115
sg26
g116
sg27
S''
sbsS'close'
p125
(ihappydoclib.parseinfo.functioninfo
FunctionInfo
p126
(dp127
g4
((dp128
(dp129
tp130
sg39
(dp131
sg41
(S'self'
p132
tp133
sg44
(dp134
g132
(NNNtp135
ssg12
g13
sg14
S''
sg17
g125
sg18
g71
sg19
g20
sg23
(dp136
sg25
g128
sg26
g129
sg27
S''
sbsS'__init__'
p137
(ihappydoclib.parseinfo.functioninfo
FunctionInfo
p138
(dp139
g4
((dp140
(dp141
tp142
sg39
(dp143
S"( '-persist does not seem to be supported ' 'by your version of gnuplot!' )"
p144
Nssg41
(S'self'
p145
S'persist'
p146
tp147
sg44
(dp148
g145
(NNNtp149
sg146
(I1
NNtp150
ssg12
g13
sg14
S''
sg17
g137
sg18
g71
sg19
g20
sg23
(dp151
sg25
g140
sg26
g141
sg27
S''
sbstp152
sg12
g13
sg14
S''
sg15
(lp153
sg17
g70
sg18
g2
sg19
g20
sg21
(lp154
sg23
(dp155
sg25
g73
sg26
g74
sg27
S''
sbs(dp156
S'test_persist'
p157
(ihappydoclib.parseinfo.functioninfo
FunctionInfo
p158
(dp159
g4
((dp160
(dp161
tp162
sg39
(dp163
sg41
(tsg44
(dp164
sg12
g13
sg14
S''
sg17
g157
sg18
g2
sg19
g20
sg23
(dp165
sg25
g160
sg26
g161
sg27
S''
sbstp166
sS'_import_info'
p167
(ihappydoclib.parseinfo.imports
ImportInfo
p168
(dp169
S'_named_imports'
p170
(dp171
sS'_straight_imports'
p172
(lp173
sbsg12
g13
sg14
S''
sg17
S'gp_java'
p174
sg18
Nsg19
g20
sg23
(dp175
S'include_comments'
p176
I1
sS'cacheFilePrefix'
p177
S'.happydoc.'
p178
sS'useCache'
p179
I1
sS'docStringFormat'
p180
S'StructuredText'
p181
ssg25
g5
sg26
g156
sg27
S''
sbt.