(S'9b7a72edda5daf9638ce534916c2cf21'
p1
(ihappydoclib.parseinfo.moduleinfo
ModuleInfo
p2
(dp3
S'_namespaces'
p4
((dp5
S'ArgOneParam'
p6
(ihappydoclib.parseinfo.classinfo
ClassInfo
p7
(dp8
g4
((dp9
(dp10
S'get_option'
p11
(ihappydoclib.parseinfo.functioninfo
FunctionInfo
p12
(dp13
g4
((dp14
(dp15
tp16
sS'_exception_info'
p17
(dp18
sS'_parameter_names'
p19
(S'self'
p20
S'keyw'
p21
tp22
sS'_parameter_info'
p23
(dp24
g20
(NNNtp25
sg21
(NNNtp26
ssS'_filename'
p27
S'Gnuplot/termdefs.py'
p28
sS'_docstring'
p29
S''
sS'_name'
p30
g11
sS'_parent'
p31
g7
sS'_comment_info'
p32
(dp33
sS'_configuration_values'
p34
(dp35
sS'_class_info'
p36
g14
sS'_function_info'
p37
g15
sS'_comments'
p38
S''
sbsS'__init__'
p39
(ihappydoclib.parseinfo.functioninfo
FunctionInfo
p40
(dp41
g4
((dp42
(dp43
tp44
sg17
(dp45
sg19
(S'self'
p46
S'argname'
p47
S'default'
p48
tp49
sg23
(dp50
g48
(NNNtp51
sg46
(NNNtp52
sg47
(NNNtp53
ssg27
g28
sg29
S''
sg30
g39
sg31
g7
sg32
g33
sg34
(dp54
sg36
g42
sg37
g43
sg38
S''
sbstp55
sg27
g28
sg29
S''
sS'_class_member_info'
p56
(lp57
sg30
g6
sg31
g2
sg32
g33
sS'_base_class_info'
p58
(lp59
sg34
(dp60
sg36
g9
sg37
g10
sg38
S''
sbsS'BooleanArg'
p61
(ihappydoclib.parseinfo.classinfo
ClassInfo
p62
(dp63
g4
((dp64
(dp65
S'__call__'
p66
(ihappydoclib.parseinfo.functioninfo
FunctionInfo
p67
(dp68
g4
((dp69
(dp70
tp71
sg17
(dp72
sg19
(S'self'
p73
S'keyw'
p74
tp75
sg23
(dp76
g73
(NNNtp77
sg74
(NNNtp78
ssg27
g28
sg29
S''
sg30
g66
sg31
g62
sg32
g33
sg34
(dp79
sg36
g69
sg37
g70
sg38
S''
sbsS'__init__'
p80
(ihappydoclib.parseinfo.functioninfo
FunctionInfo
p81
(dp82
g4
((dp83
(dp84
tp85
sg17
(dp86
sg19
(S'self'
p87
S'argname'
p88
S'trueval'
p89
S'falseval'
p90
S'fixedword'
p91
S'default'
p92
tp93
sg23
(dp94
g92
(I1
NNtp95
sg87
(NNNtp96
sg91
(I1
NNtp97
sg89
(NNNtp98
sg88
(NNNtp99
sg90
(NNNtp100
ssg27
g28
sg29
S''
sg30
g80
sg31
g62
sg32
g33
sg34
(dp101
sg36
g83
sg37
g84
sg38
S''
sbstp102
sg27
g28
sg29
S''
sg56
(lp103
sg30
g61
sg31
g2
sg32
g33
sg58
(lp104
sg34
(dp105
sg36
g64
sg37
g65
sg38
S''
sbsS'BareStringArg'
p106
(ihappydoclib.parseinfo.classinfo
ClassInfo
p107
(dp108
g4
((dp109
(dp110
S'__call__'
p111
(ihappydoclib.parseinfo.functioninfo
FunctionInfo
p112
(dp113
g4
((dp114
(dp115
tp116
sg17
(dp117
sg19
(S'self'
p118
S'keyw'
p119
tp120
sg23
(dp121
g118
(NNNtp122
sg119
(NNNtp123
ssg27
g28
sg29
S''
sg30
g111
sg31
g107
sg32
g33
sg34
(dp124
sg36
g114
sg37
g115
sg38
S''
sbsS'__init__'
p125
(ihappydoclib.parseinfo.functioninfo
FunctionInfo
p126
(dp127
g4
((dp128
(dp129
tp130
sg17
(dp131
sg19
(S'self'
p132
S'argname'
p133
S'fixedword'
p134
S'default'
p135
tp136
sg23
(dp137
g135
(I1
NNtp138
sg132
(NNNtp139
sg134
(I1
NNtp140
sg133
(NNNtp141
ssg27
g28
sg29
S''
sg30
g125
sg31
g107
sg32
g33
sg34
(dp142
sg36
g128
sg37
g129
sg38
S''
sbstp143
sg27
g28
sg29
S''
sg56
(lp144
sg30
g106
sg31
g2
sg32
g33
sg58
(lp145
sg34
(dp146
sg36
g109
sg37
g110
sg38
S''
sbsS'KeywordOrBooleanArg'
p147
(ihappydoclib.parseinfo.classinfo
ClassInfo
p148
(dp149
g4
((dp150
(dp151
S'__call__'
p152
(ihappydoclib.parseinfo.functioninfo
FunctionInfo
p153
(dp154
g4
((dp155
(dp156
tp157
sg17
(dp158
S"Errors.OptionError('Arguments %s and %s cannot both be specified' %( option, k, ) )"
p159
NsS"Errors.OptionError('Arguments %s and %s are contradictory' %( self.argname, k, ) )"
p160
NsS"Errors.OptionError('Illegal option %s=%s' %( self.argname, k, ) )"
p161
Nssg19
(S'self'
p162
S'keyw'
p163
tp164
sg23
(dp165
g162
(NNNtp166
sg163
(NNNtp167
ssg27
g28
sg29
S''
sg30
g152
sg31
g148
sg32
g33
sg34
(dp168
sg36
g155
sg37
g156
sg38
S''
sbsS'__init__'
p169
(ihappydoclib.parseinfo.functioninfo
FunctionInfo
p170
(dp171
g4
((dp172
(dp173
tp174
sg17
(dp175
sg19
(S'self'
p176
S'options'
p177
S'argname'
p178
S'fixedword'
p179
S'default'
p180
tp181
sg23
(dp182
g178
(I1
NNtp183
sg180
(I1
NNtp184
sg176
(NNNtp185
sg179
(I1
NNtp186
sg177
(NNNtp187
ssg27
g28
sg29
S''
sg30
g169
sg31
g148
sg32
g33
sg34
(dp188
sg36
g172
sg37
g173
sg38
S''
sbstp189
sg27
g28
sg29
S''
sg56
(lp190
sg30
g147
sg31
g2
sg32
g33
sg58
(lp191
sg34
(dp192
sg36
g150
sg37
g151
sg38
S''
sbsS'StringArg'
p193
(ihappydoclib.parseinfo.classinfo
ClassInfo
p194
(dp195
g4
((dp196
(dp197
S'__call__'
p198
(ihappydoclib.parseinfo.functioninfo
FunctionInfo
p199
(dp200
g4
((dp201
(dp202
tp203
sg17
(dp204
S"Errors.OptionError('Option %s must be a string' %( self.argname, ) )"
p205
Nssg19
(S'self'
p206
S'keyw'
p207
tp208
sg23
(dp209
g206
(NNNtp210
sg207
(NNNtp211
ssg27
g28
sg29
S''
sg30
g198
sg31
g194
sg32
g33
sg34
(dp212
sg36
g201
sg37
g202
sg38
S''
sbsS'__init__'
p213
(ihappydoclib.parseinfo.functioninfo
FunctionInfo
p214
(dp215
g4
((dp216
(dp217
tp218
sg17
(dp219
sg19
(S'self'
p220
S'argname'
p221
S'fixedword'
p222
S'default'
p223
tp224
sg23
(dp225
g223
(I1
NNtp226
sg220
(NNNtp227
sg222
(I1
NNtp228
sg221
(NNNtp229
ssg27
g28
sg29
S''
sg30
g213
sg31
g194
sg32
g33
sg34
(dp230
sg36
g216
sg37
g217
sg38
S''
sbstp231
sg27
g28
sg29
S''
sg56
(lp232
sg30
g193
sg31
g2
sg32
g33
sg58
(lp233
sg34
(dp234
sg36
g196
sg37
g197
sg38
S''
sbsS'KeywordArg'
p235
(ihappydoclib.parseinfo.classinfo
ClassInfo
p236
(dp237
g4
((dp238
(dp239
S'__call__'
p240
(ihappydoclib.parseinfo.functioninfo
FunctionInfo
p241
(dp242
g4
((dp243
(dp244
tp245
sg17
(dp246
S'Errors.OptionError(\'Illegal option %s="%s"\' %( self.argname, k, ) )'
p247
Nssg19
(S'self'
p248
S'keyw'
p249
tp250
sg23
(dp251
g248
(NNNtp252
sg249
(NNNtp253
ssg27
g28
sg29
S''
sg30
g240
sg31
g236
sg32
g33
sg34
(dp254
sg36
g243
sg37
g244
sg38
S''
sbsS'__init__'
p255
(ihappydoclib.parseinfo.functioninfo
FunctionInfo
p256
(dp257
g4
((dp258
(dp259
tp260
sg17
(dp261
sg19
(S'self'
p262
S'argname'
p263
S'options'
p264
S'fixedword'
p265
S'default'
p266
tp267
sg23
(dp268
g266
(I1
NNtp269
sg262
(NNNtp270
sg265
(I1
NNtp271
sg263
(NNNtp272
sg264
(NNNtp273
ssg27
g28
sg29
S''
sg30
g255
sg31
g236
sg32
g33
sg34
(dp274
sg36
g258
sg37
g259
sg38
S''
sbstp275
sg27
g28
sg29
S''
sg56
(lp276
sg30
g235
sg31
g2
sg32
g33
sg58
(lp277
sg34
(dp278
sg36
g238
sg37
g239
sg38
S''
sbsS'Arg'
p279
(ihappydoclib.parseinfo.classinfo
ClassInfo
p280
(dp281
g4
((dp282
(dp283
tp284
sg27
g28
sg29
S''
sg56
(lp285
sg30
g279
sg31
g2
sg32
g33
sg58
(lp286
sg34
(dp287
sg36
g282
sg37
g283
sg38
S''
sbsS'MutuallyExclusiveArgs'
p288
(ihappydoclib.parseinfo.classinfo
ClassInfo
p289
(dp290
g4
((dp291
(dp292
S'__call__'
p293
(ihappydoclib.parseinfo.functioninfo
FunctionInfo
p294
(dp295
g4
((dp296
(dp297
tp298
sg17
(dp299
S"Errors.OptionError('Arguments %s and %s cannot both be specified' %( foundargname, argname, ) )"
p300
Nssg19
(S'self'
p301
S'keyw'
p302
tp303
sg23
(dp304
g301
(NNNtp305
sg302
(NNNtp306
ssg27
g28
sg29
S''
sg30
g293
sg31
g289
sg32
g33
sg34
(dp307
sg36
g296
sg37
g297
sg38
S''
sbsS'__init__'
p308
(ihappydoclib.parseinfo.functioninfo
FunctionInfo
p309
(dp310
g4
((dp311
(dp312
tp313
sg17
(dp314
sg19
(S'self'
p315
S'*subargs'
p316
tp317
sg23
(dp318
g315
(NNNtp319
sg316
(NNNtp320
ssg27
g28
sg29
S''
sg30
g308
sg31
g289
sg32
g33
sg34
(dp321
sg36
g311
sg37
g312
sg38
S''
sbstp322
sg27
g28
sg29
S''
sg56
(lp323
sg30
g288
sg31
g2
sg32
g33
sg58
(lp324
sg34
(dp325
sg36
g291
sg37
g292
sg38
S''
sbs(dp326
tp327
sS'_import_info'
p328
(ihappydoclib.parseinfo.imports
ImportInfo
p329
(dp330
S'_named_imports'
p331
(dp332
sS'_straight_imports'
p333
(lp334
sbsg27
g28
sg29
S''
sg30
S'termdefs'
p335
sg31
Nsg32
g33
sg34
(dp336
S'include_comments'
p337
I1
sS'cacheFilePrefix'
p338
S'.happydoc.'
p339
sS'useCache'
p340
I1
sS'docStringFormat'
p341
S'StructuredText'
p342
ssg36
g5
sg37
g326
sg38
S''
sbt.