(S'd07b7bd90a798b2024e1f84c66405c0a'
p1
(ihappydoclib.parseinfo.moduleinfo
ModuleInfo
p2
(dp3
S'_namespaces'
p4
((dp5
(dp6
S'write_array'
p7
(ihappydoclib.parseinfo.functioninfo
FunctionInfo
p8
(dp9
g4
((dp10
(dp11
tp12
sS'_exception_info'
p13
(dp14
sS'_parameter_names'
p15
(S'f'
S'set'
p16
S'item_sep'
p17
S'nest_prefix'
p18
S'nest_suffix'
p19
S'nest_sep'
p20
tp21
sS'_parameter_info'
p22
(dp23
g16
(NNNtp24
sS'f'
(NNNtp25
sg17
(I1
NNtp26
sg19
(I1
NNtp27
sg18
(I1
NNtp28
sg20
(I1
NNtp29
ssS'_filename'
p30
S'Gnuplot/utils.py'
p31
sS'_docstring'
p32
S''
sS'_name'
p33
g7
sS'_parent'
p34
g2
sS'_comment_info'
p35
(dp36
sS'_configuration_values'
p37
(dp38
sS'_class_info'
p39
g10
sS'_function_info'
p40
g11
sS'_comments'
p41
S''
sbsS'float_array'
p42
(ihappydoclib.parseinfo.functioninfo
FunctionInfo
p43
(dp44
g4
((dp45
(dp46
tp47
sg13
(dp48
sg15
(S'm'
tp49
sg22
(dp50
S'm'
(NNNtp51
ssg30
g31
sg32
S''
sg33
g42
sg34
g2
sg35
g36
sg37
(dp52
sg39
g45
sg40
g46
sg41
S''
sbstp53
sS'_import_info'
p54
(ihappydoclib.parseinfo.imports
ImportInfo
p55
(dp56
S'_named_imports'
p57
(dp58
sS'_straight_imports'
p59
(lp60
sbsg30
g31
sg32
S''
sg33
S'utils'
p61
sg34
Nsg35
g36
sg37
(dp62
S'include_comments'
p63
I1
sS'cacheFilePrefix'
p64
S'.happydoc.'
p65
sS'useCache'
p66
I1
sS'docStringFormat'
p67
S'StructuredText'
p68
ssg39
g5
sg40
g6
sg41
S''
sbt.