(S'4733d7cf7d36fdb554422508981cb272'
p1
(ihappydoclib.parseinfo.moduleinfo
ModuleInfo
p2
(dp3
S'_namespaces'
p4
((dp5
(dp6
S'double_quote_string'
p7
(ihappydoclib.parseinfo.functioninfo
FunctionInfo
p8
(dp9
g4
((dp10
(dp11
tp12
sS'_exception_info'
p13
(dp14
sS'_parameter_names'
p15
(S's'
tp16
sS'_parameter_info'
p17
(dp18
S's'
(NNNtp19
ssS'_filename'
p20
S'Gnuplot/gp.py'
p21
sS'_docstring'
p22
S''
sS'_name'
p23
g7
sS'_parent'
p24
g2
sS'_comment_info'
p25
(dp26
sS'_configuration_values'
p27
(dp28
sS'_class_info'
p29
g10
sS'_function_info'
p30
g11
sS'_comments'
p31
S''
sbstp32
sS'_import_info'
p33
(ihappydoclib.parseinfo.imports
ImportInfo
p34
(dp35
S'_named_imports'
p36
(dp37
sS'_straight_imports'
p38
(lp39
sbsg20
g21
sg22
S''
sg23
S'gp'
p40
sg24
Nsg25
g26
sg27
(dp41
S'include_comments'
p42
I1
sS'cacheFilePrefix'
p43
S'.happydoc.'
p44
sS'useCache'
p45
I1
sS'docStringFormat'
p46
S'StructuredText'
p47
ssg29
g5
sg30
g6
sg31
S''
sbt.