(S'4a47d4b732a3e46c4c262113dfe3e432'
p1
(ihappydoclib.parseinfo.moduleinfo
ModuleInfo
p2
(dp3
S'_namespaces'
p4
((dp5
S'PlotItem'
p6
(ihappydoclib.parseinfo.classinfo
ClassInfo
p7
(dp8
g4
((dp9
(dp10
S'get_option'
p11
(ihappydoclib.parseinfo.functioninfo
FunctionInfo
p12
(dp13
g4
((dp14
(dp15
tp16
sS'_exception_info'
p17
(dp18
S"KeyError( 'option %s is not set!' % name )"
p19
NssS'_parameter_names'
p20
(S'self'
p21
S'name'
p22
tp23
sS'_parameter_info'
p24
(dp25
g21
(NNNtp26
sg22
(NNNtp27
ssS'_filename'
p28
S'Gnuplot/PlotItems.py'
p29
sS'_docstring'
p30
S''
sS'_name'
p31
g11
sS'_parent'
p32
g7
sS'_comment_info'
p33
(dp34
sS'_configuration_values'
p35
(dp36
sS'_class_info'
p37
g14
sS'_function_info'
p38
g15
sS'_comments'
p39
S''
sbsS'get_command_option_string'
p40
(ihappydoclib.parseinfo.functioninfo
FunctionInfo
p41
(dp42
g4
((dp43
(dp44
tp45
sg17
(dp46
sg20
(S'self'
p47
tp48
sg24
(dp49
g47
(NNNtp50
ssg28
g29
sg30
S''
sg31
g40
sg32
g7
sg33
g34
sg35
(dp51
sg37
g43
sg38
g44
sg39
S''
sbsS'set_string_option'
p52
(ihappydoclib.parseinfo.functioninfo
FunctionInfo
p53
(dp54
g4
((dp55
(dp56
tp57
sg17
(dp58
sg20
(S'self'
p59
S'option'
p60
S'value'
p61
S'default'
p62
S'fmt'
p63
tp64
sg24
(dp65
g62
(NNNtp66
sg59
(NNNtp67
sg63
(NNNtp68
sg60
(NNNtp69
sg61
(NNNtp70
ssg28
g29
sg30
S''
sg31
g52
sg32
g7
sg33
g34
sg35
(dp71
sg37
g55
sg38
g56
sg39
S''
sbsS'command'
p72
(ihappydoclib.parseinfo.functioninfo
FunctionInfo
p73
(dp74
g4
((dp75
(dp76
tp77
sg17
(dp78
sg20
(S'self'
p79
tp80
sg24
(dp81
g79
(NNNtp82
ssg28
g29
sg30
S''
sg31
g72
sg32
g7
sg33
g34
sg35
(dp83
sg37
g75
sg38
g76
sg39
S''
sbsS'clear_option'
p84
(ihappydoclib.parseinfo.functioninfo
FunctionInfo
p85
(dp86
g4
((dp87
(dp88
tp89
sg17
(dp90
sg20
(S'self'
p91
S'name'
p92
tp93
sg24
(dp94
g91
(NNNtp95
sg92
(NNNtp96
ssg28
g29
sg30
S''
sg31
g84
sg32
g7
sg33
g34
sg35
(dp97
sg37
g87
sg38
g88
sg39
S''
sbsS'__init__'
p98
(ihappydoclib.parseinfo.functioninfo
FunctionInfo
p99
(dp100
g4
((dp101
(dp102
tp103
sg17
(dp104
sg20
(S'self'
p105
S'**keyw'
p106
tp107
sg24
(dp108
g105
(NNNtp109
sg106
(NNNtp110
ssg28
g29
sg30
S''
sg31
g98
sg32
g7
sg33
g34
sg35
(dp111
sg37
g101
sg38
g102
sg39
S''
sbsS'pipein'
p112
(ihappydoclib.parseinfo.functioninfo
FunctionInfo
p113
(dp114
g4
((dp115
(dp116
tp117
sg17
(dp118
sg20
(S'self'
p119
S'f'
tp120
sg24
(dp121
g119
(NNNtp122
sS'f'
(NNNtp123
ssg28
g29
sg30
S''
sg31
g112
sg32
g7
sg33
g34
sg35
(dp124
sg37
g115
sg38
g116
sg39
S''
sbsS'set_option'
p125
(ihappydoclib.parseinfo.functioninfo
FunctionInfo
p126
(dp127
g4
((dp128
(dp129
tp130
sg17
(dp131
S"Errors.OptionError( 'Cannot modify %s option after construction!', option )"
p132
NsS"Errors.OptionError('%s=%s' %( option, value ) )"
p133
Nssg20
(S'self'
p134
S'**keyw'
p135
tp136
sg24
(dp137
g134
(NNNtp138
sg135
(NNNtp139
ssg28
g29
sg30
S''
sg31
g125
sg32
g7
sg33
g34
sg35
(dp140
sg37
g128
sg38
g129
sg39
S''
sbsS'get_base_command_string'
p141
(ihappydoclib.parseinfo.functioninfo
FunctionInfo
p142
(dp143
g4
((dp144
(dp145
tp146
sg17
(dp147
S'NotImplementedError()'
p148
Nssg20
(S'self'
p149
tp150
sg24
(dp151
g149
(NNNtp152
ssg28
g29
sg30
S''
sg31
g141
sg32
g7
sg33
g34
sg35
(dp153
sg37
g144
sg38
g145
sg39
S''
sbstp154
sg28
g29
sg30
S''
sS'_class_member_info'
p155
(lp156
sg31
g6
sg32
g2
sg33
g34
sS'_base_class_info'
p157
(lp158
sg35
(dp159
sg37
g9
sg38
g10
sg39
S''
sbsS'_NewFileItem'
p160
(ihappydoclib.parseinfo.classinfo
ClassInfo
p161
(dp162
g4
((dp163
(dp164
S'__del__'
p165
(ihappydoclib.parseinfo.functioninfo
FunctionInfo
p166
(dp167
g4
((dp168
(dp169
tp170
sg17
(dp171
sg20
(S'self'
p172
tp173
sg24
(dp174
g172
(NNNtp175
ssg28
g29
sg30
S''
sg31
g165
sg32
g161
sg33
g34
sg35
(dp176
sg37
g168
sg38
g169
sg39
S''
sbsS'__init__'
p177
(ihappydoclib.parseinfo.functioninfo
FunctionInfo
p178
(dp179
g4
((dp180
(dp181
tp182
sg17
(dp183
sg20
(S'self'
p184
S'content'
p185
S'filename'
p186
S'**keyw'
p187
tp188
sg24
(dp189
g185
(NNNtp190
sg184
(NNNtp191
sg187
(NNNtp192
sg186
(I1
NNtp193
ssg28
g29
sg30
S''
sg31
g177
sg32
g161
sg33
g34
sg35
(dp194
sg37
g180
sg38
g181
sg39
S''
sbstp195
sg28
g29
sg30
S''
sg155
(lp196
sg31
g160
sg32
g2
sg33
g34
sg157
(lp197
sg35
(dp198
sg37
g163
sg38
g164
sg39
S''
sbsS'_FileItem'
p199
(ihappydoclib.parseinfo.classinfo
ClassInfo
p200
(dp201
g4
((dp202
(dp203
S'set_option_binary'
p204
(ihappydoclib.parseinfo.functioninfo
FunctionInfo
p205
(dp206
g4
((dp207
(dp208
tp209
sg17
(dp210
S"Errors.OptionError( 'Gnuplot.py is currently configured to reject binary data' )"
p211
Nssg20
(S'self'
p212
S'binary'
p213
tp214
sg24
(dp215
g213
(NNNtp216
sg212
(NNNtp217
ssg28
g29
sg30
S''
sg31
g204
sg32
g200
sg33
g34
sg35
(dp218
sg37
g207
sg38
g208
sg39
S''
sbsS'get_base_command_string'
p219
(ihappydoclib.parseinfo.functioninfo
FunctionInfo
p220
(dp221
g4
((dp222
(dp223
tp224
sg17
(dp225
sg20
(S'self'
p226
tp227
sg24
(dp228
g226
(NNNtp229
ssg28
g29
sg30
S''
sg31
g219
sg32
g200
sg33
g34
sg35
(dp230
sg37
g222
sg38
g223
sg39
S''
sbsS'__init__'
p231
(ihappydoclib.parseinfo.functioninfo
FunctionInfo
p232
(dp233
g4
((dp234
(dp235
tp236
sg17
(dp237
sg20
(S'self'
p238
S'filename'
p239
S'**keyw'
p240
tp241
sg24
(dp242
g238
(NNNtp243
sg240
(NNNtp244
sg239
(NNNtp245
ssg28
g29
sg30
S''
sg31
g231
sg32
g200
sg33
g34
sg35
(dp246
sg37
g234
sg38
g235
sg39
S''
sbsS'set_option_colonsep'
p247
(ihappydoclib.parseinfo.functioninfo
FunctionInfo
p248
(dp249
g4
((dp250
(dp251
tp252
sg17
(dp253
S"Errors.OptionError('%s=%s' %( name, value, ) )"
p254
Nssg20
(S'self'
p255
S'name'
p256
S'value'
p257
tp258
sg24
(dp259
g255
(NNNtp260
sg256
(NNNtp261
sg257
(NNNtp262
ssg28
g29
sg30
S''
sg31
g247
sg32
g200
sg33
g34
sg35
(dp263
sg37
g250
sg38
g251
sg39
S''
sbstp264
sg28
g29
sg30
S''
sg155
(lp265
sg31
g199
sg32
g2
sg33
g34
sg157
(lp266
sg35
(dp267
sg37
g202
sg38
g203
sg39
S''
sbsS'_unset'
p268
(ihappydoclib.parseinfo.classinfo
ClassInfo
p269
(dp270
g4
((dp271
(dp272
tp273
sg28
g29
sg30
S''
sg155
(lp274
sg31
g268
sg32
g2
sg33
g34
sg157
(lp275
sg35
(dp276
sg37
g271
sg38
g272
sg39
S''
sbsS'_InlineFileItem'
p277
(ihappydoclib.parseinfo.classinfo
ClassInfo
p278
(dp279
g4
((dp280
(dp281
S'__init__'
p282
(ihappydoclib.parseinfo.functioninfo
FunctionInfo
p283
(dp284
g4
((dp285
(dp286
tp287
sg17
(dp288
S"Errors.OptionError( 'binary inline data is not supported' )"
p289
Nssg20
(S'self'
p290
S'content'
p291
S'**keyw'
p292
tp293
sg24
(dp294
g291
(NNNtp295
sg290
(NNNtp296
sg292
(NNNtp297
ssg28
g29
sg30
S''
sg31
g282
sg32
g278
sg33
g34
sg35
(dp298
sg37
g285
sg38
g286
sg39
S''
sbsS'pipein'
p299
(ihappydoclib.parseinfo.functioninfo
FunctionInfo
p300
(dp301
g4
((dp302
(dp303
tp304
sg17
(dp305
sg20
(S'self'
p306
S'f'
tp307
sg24
(dp308
g306
(NNNtp309
sS'f'
(NNNtp310
ssg28
g29
sg30
S''
sg31
g299
sg32
g278
sg33
g34
sg35
(dp311
sg37
g302
sg38
g303
sg39
S''
sbstp312
sg28
g29
sg30
S''
sg155
(lp313
sg31
g277
sg32
g2
sg33
g34
sg157
(lp314
sg35
(dp315
sg37
g280
sg38
g281
sg39
S''
sbsS'Func'
p316
(ihappydoclib.parseinfo.classinfo
ClassInfo
p317
(dp318
g4
((dp319
(dp320
S'get_base_command_string'
p321
(ihappydoclib.parseinfo.functioninfo
FunctionInfo
p322
(dp323
g4
((dp324
(dp325
tp326
sg17
(dp327
sg20
(S'self'
p328
tp329
sg24
(dp330
g328
(NNNtp331
ssg28
g29
sg30
S''
sg31
g321
sg32
g317
sg33
g34
sg35
(dp332
sg37
g324
sg38
g325
sg39
S''
sbsS'__init__'
p333
(ihappydoclib.parseinfo.functioninfo
FunctionInfo
p334
(dp335
g4
((dp336
(dp337
tp338
sg17
(dp339
sg20
(S'self'
p340
S'function'
p341
S'**keyw'
p342
tp343
sg24
(dp344
g341
(NNNtp345
sg340
(NNNtp346
sg342
(NNNtp347
ssg28
g29
sg30
S''
sg31
g333
sg32
g317
sg33
g34
sg35
(dp348
sg37
g336
sg38
g337
sg39
S''
sbstp349
sg28
g29
sg30
S''
sg155
(lp350
sg31
g316
sg32
g2
sg33
g34
sg157
(lp351
sg35
(dp352
sg37
g319
sg38
g320
sg39
S''
sbs(dp353
S'GridData'
p354
(ihappydoclib.parseinfo.functioninfo
FunctionInfo
p355
(dp356
g4
((dp357
(dp358
tp359
sg17
(dp360
S"Errors.DataError( 'The size of yvals must be the same as the size of ' 'the second dimension of the data array' )"
p361
NsS"Errors.OptionError( 'binary inline data not supported' )"
p362
NsS"Errors.DataError( 'The size of xvals must be the same as the size of ' 'the first dimension of the data array' )"
p363
NsS"Errors.OptionError( 'cannot pass data both inline and via a file' )"
p364
NsS"Errors.DataError( 'data array must be two-dimensional' )"
p365
Nssg20
(S'data'
p366
S'xvals'
p367
S'yvals'
p368
S'inline'
p369
S'filename'
p370
S'**keyw'
p371
tp372
sg24
(dp373
g367
(I1
NNtp374
sg368
(I1
NNtp375
sg370
(I1
NNtp376
sg369
(I1
NNtp377
sg371
(NNNtp378
sg366
(NNNtp379
ssg28
g29
sg30
S''
sg31
g354
sg32
g2
sg33
g34
sg35
(dp380
sg37
g357
sg38
g358
sg39
S''
sbsS'Data'
p381
(ihappydoclib.parseinfo.functioninfo
FunctionInfo
p382
(dp383
g4
((dp384
(dp385
tp386
sg17
(dp387
S"Errors.OptionError( 'cannot pass data both inline and via a file' )"
p388
Nssg20
(S'*data'
p389
S'*keyw'
p390
tp391
sg24
(dp392
g390
(NNNtp393
sg389
(NNNtp394
ssg28
g29
sg30
S''
sg31
g381
sg32
g2
sg33
g34
sg35
(dp395
sg37
g384
sg38
g385
sg39
S''
sbsS'File'
p396
(ihappydoclib.parseinfo.functioninfo
FunctionInfo
p397
(dp398
g4
((dp399
(dp400
tp401
sg17
(dp402
S"Errors.OptionError('Argument (%s) must be a filename' %( filename, ) )"
p403
Nssg20
(S'filename'
p404
S'**keyw'
p405
tp406
sg24
(dp407
g405
(NNNtp408
sg404
(NNNtp409
ssg28
g29
sg30
S''
sg31
g396
sg32
g2
sg33
g34
sg35
(dp410
sg37
g399
sg38
g400
sg39
S''
sbstp411
sS'_import_info'
p412
(ihappydoclib.parseinfo.imports
ImportInfo
p413
(dp414
S'_named_imports'
p415
(dp416
sS'_straight_imports'
p417
(lp418
sbsg28
g29
sg30
S''
sg31
S'PlotItems'
p419
sg32
Nsg33
g34
sg35
(dp420
S'include_comments'
p421
I1
sS'cacheFilePrefix'
p422
S'.happydoc.'
p423
sS'useCache'
p424
I1
sS'docStringFormat'
p425
S'StructuredText'
p426
ssg37
g5
sg38
g353
sg39
S''
sbt.