(S'a467864857317a08ae50c63939ec55b5'
p1
(ihappydoclib.parseinfo.moduleinfo
ModuleInfo
p2
(dp3
S'_namespaces'
p4
((dp5
S'GnuplotOpts'
p6
(ihappydoclib.parseinfo.classinfo
ClassInfo
p7
(dp8
g4
((dp9
(dp10
tp11
sS'_filename'
p12
S'Gnuplot/gp_mac.py'
p13
sS'_docstring'
p14
S''
sS'_class_member_info'
p15
(lp16
sS'_name'
p17
g6
sS'_parent'
p18
g2
sS'_comment_info'
p19
(dp20
(S'test_persist'
tp21
S" Mac doesn't recognize persist.\n"
p22
ssS'_base_class_info'
p23
(lp24
sS'_configuration_values'
p25
(dp26
sS'_class_info'
p27
g9
sS'_function_info'
p28
g10
sS'_comments'
p29
S''
sbsS'_GNUPLOT'
p30
(ihappydoclib.parseinfo.classinfo
ClassInfo
p31
(dp32
g4
((dp33
(dp34
S'__init__'
p35
(ihappydoclib.parseinfo.functioninfo
FunctionInfo
p36
(dp37
g4
((dp38
(dp39
tp40
sS'_exception_info'
p41
(dp42
sS'_parameter_names'
p43
(S'self'
p44
tp45
sS'_parameter_info'
p46
(dp47
g44
(NNNtp48
ssg12
g13
sg14
S''
sg17
g35
sg18
g31
sg19
g20
sg25
(dp49
sg27
g38
sg28
g39
sg29
S''
sbstp50
sg12
g13
sg14
S''
sg15
(lp51
sg17
g30
sg18
g2
sg19
g20
sg23
(lp52
sg25
(dp53
sg27
g33
sg28
g34
sg29
S''
sbsS'GnuplotProcess'
p54
(ihappydoclib.parseinfo.classinfo
ClassInfo
p55
(dp56
g4
((dp57
(dp58
S'__del__'
p59
(ihappydoclib.parseinfo.functioninfo
FunctionInfo
p60
(dp61
g4
((dp62
(dp63
tp64
sg41
(dp65
sg43
(S'self'
p66
tp67
sg46
(dp68
g66
(NNNtp69
ssg12
g13
sg14
S''
sg17
g59
sg18
g55
sg19
g20
sg25
(dp70
sg27
g62
sg28
g63
sg29
S''
sbsS'write'
p71
(ihappydoclib.parseinfo.functioninfo
FunctionInfo
p72
(dp73
g4
((dp74
(dp75
tp76
sg41
(dp77
sg43
(S'self'
p78
S's'
tp79
sg46
(dp80
g78
(NNNtp81
sS's'
(NNNtp82
ssg12
g13
sg14
S''
sg17
g71
sg18
g55
sg19
g20
sg25
(dp83
sg27
g74
sg28
g75
sg29
S''
sbsS'flush'
p84
(ihappydoclib.parseinfo.functioninfo
FunctionInfo
p85
(dp86
g4
((dp87
(dp88
tp89
sg41
(dp90
sg43
(S'self'
p91
tp92
sg46
(dp93
g91
(NNNtp94
ssg12
g13
sg14
S''
sg17
g84
sg18
g55
sg19
g20
sg25
(dp95
sg27
g87
sg28
g88
sg29
S''
sbsS'__call__'
p96
(ihappydoclib.parseinfo.functioninfo
FunctionInfo
p97
(dp98
g4
((dp99
(dp100
tp101
sg41
(dp102
sg43
(S'self'
p103
S's'
tp104
sg46
(dp105
g103
(NNNtp106
sS's'
(NNNtp107
ssg12
g13
sg14
S''
sg17
g96
sg18
g55
sg19
g20
sg25
(dp108
sg27
g99
sg28
g100
sg29
S''
sbsS'close'
p109
(ihappydoclib.parseinfo.functioninfo
FunctionInfo
p110
(dp111
g4
((dp112
(dp113
tp114
sg41
(dp115
sg43
(S'self'
p116
tp117
sg46
(dp118
g116
(NNNtp119
ssg12
g13
sg14
S''
sg17
g109
sg18
g55
sg19
g20
sg25
(dp120
sg27
g112
sg28
g113
sg29
S''
sbsS'__init__'
p121
(ihappydoclib.parseinfo.functioninfo
FunctionInfo
p122
(dp123
g4
((dp124
(dp125
tp126
sg41
(dp127
S"Errors.OptionError( '-persist is not supported on the Macintosh!' )"
p128
Nssg43
(S'self'
p129
S'persist'
p130
tp131
sg46
(dp132
g129
(NNNtp133
sg130
(I1
NNtp134
ssg12
g13
sg14
S''
sg17
g121
sg18
g55
sg19
g20
sg25
(dp135
sg27
g124
sg28
g125
sg29
S''
sbstp136
sg12
g13
sg14
S''
sg15
(lp137
sg17
g54
sg18
g2
sg19
g20
sg23
(lp138
sg25
(dp139
sg27
g57
sg28
g58
sg29
S''
sbs(dp140
S'test_persist'
p141
(ihappydoclib.parseinfo.functioninfo
FunctionInfo
p142
(dp143
g4
((dp144
(dp145
tp146
sg41
(dp147
sg43
(tsg46
(dp148
sg12
g13
sg14
S''
sg17
g141
sg18
g2
sg19
g20
sg25
(dp149
sg27
g144
sg28
g145
sg29
g22
sbstp150
sS'_import_info'
p151
(ihappydoclib.parseinfo.imports
ImportInfo
p152
(dp153
S'_named_imports'
p154
(dp155
sS'_straight_imports'
p156
(lp157
sbsg12
g13
sg14
S''
sg17
S'gp_mac'
p158
sg18
Nsg19
g20
sg25
(dp159
S'include_comments'
p160
I1
sS'cacheFilePrefix'
p161
S'.happydoc.'
p162
sS'useCache'
p163
I1
sS'docStringFormat'
p164
S'StructuredText'
p165
ssg27
g5
sg28
g140
sg29
S''
sbt.