(S'7db3fa0979e3be131012ed17091e3777'
p1
(ihappydoclib.parseinfo.moduleinfo
ModuleInfo
p2
(dp3
S'_namespaces'
p4
((dp5
S'titled'
p6
(ihappydoclib.parseinfo.classinfo
ClassInfo
p7
(dp8
g4
((dp9
(dp10
tp11
sS'_filename'
p12
S'Gnuplot/gnuplot_Suites.py'
p13
sS'_docstring'
p14
S''
sS'_class_member_info'
p15
(lp16
sS'_name'
p17
g6
sS'_parent'
p18
g2
sS'_comment_info'
p19
(dp20
(S'modified'
tp21
S' repeated property name the title of the document\n'
p22
ssS'_base_class_info'
p23
(lp24
sS'_configuration_values'
p25
(dp26
sS'_class_info'
p27
g9
sS'_function_info'
p28
g10
sS'_comments'
p29
S''
sbsS'modified'
p30
(ihappydoclib.parseinfo.classinfo
ClassInfo
p31
(dp32
g4
((dp33
(dp34
tp35
sg12
g13
sg14
S''
sg15
(lp36
sg17
g30
sg18
g2
sg19
g20
sg23
(lp37
sg25
(dp38
sg27
g33
sg28
g34
sg29
g22
sbsS'visible'
p39
(ihappydoclib.parseinfo.classinfo
ClassInfo
p40
(dp41
g4
((dp42
(dp43
tp44
sg12
g13
sg14
S''
sg15
(lp45
sg17
g39
sg18
g2
sg19
g20
sg23
(lp46
sg25
(dp47
sg27
g42
sg28
g43
sg29
S''
sbsS'floating'
p48
(ihappydoclib.parseinfo.classinfo
ClassInfo
p49
(dp50
g4
((dp51
(dp52
tp53
sg12
g13
sg14
S''
sg15
(lp54
sg17
g48
sg18
g2
sg19
g20
sg23
(lp55
sg25
(dp56
sg27
g51
sg28
g52
sg29
S''
sbsS'index'
p57
(ihappydoclib.parseinfo.classinfo
ClassInfo
p58
(dp59
g4
((dp60
(dp61
tp62
sg12
g13
sg14
S''
sg15
(lp63
sg17
g57
sg18
g2
sg19
g20
sg23
(lp64
sg25
(dp65
sg27
g60
sg28
g61
sg29
S''
sbsS'graph'
p66
(ihappydoclib.parseinfo.classinfo
ClassInfo
p67
(dp68
g4
((dp69
(dp70
tp71
sg12
g13
sg14
S''
sg15
(lp72
sg17
g66
sg18
g2
sg19
g20
sg23
(lp73
sg25
(dp74
sg27
g69
sg28
g70
sg29
S''
sbsS'Standard_Suite'
p75
(ihappydoclib.parseinfo.classinfo
ClassInfo
p76
(dp77
g4
((dp78
(dp79
S'set'
p80
(ihappydoclib.parseinfo.functioninfo
FunctionInfo
p81
(dp82
g4
((dp83
(dp84
tp85
sS'_exception_info'
p86
(dp87
S'aetools.Error, aetools.decodeerror( _arguments )'
p88
NssS'_parameter_names'
p89
(S'self'
p90
S'_object'
p91
S'_attributes'
p92
S'**_arguments'
p93
tp94
sS'_parameter_info'
p95
(dp96
g91
(NNNtp97
sg90
(NNNtp98
sg93
(NNNtp99
sg92
(I1
NNtp100
ssg12
g13
sg14
S''
sg17
g80
sg18
g76
sg19
g20
sg25
(dp101
sg27
g83
sg28
g84
sg29
S''
sbsS'get'
p102
(ihappydoclib.parseinfo.functioninfo
FunctionInfo
p103
(dp104
g4
((dp105
(dp106
tp107
sg86
(dp108
S'aetools.Error, aetools.decodeerror( _arguments )'
p109
NsS"TypeError, 'No optional args expected'"
p110
Nssg89
(S'self'
p111
S'_object'
p112
S'_attributes'
p113
S'**_arguments'
p114
tp115
sg95
(dp116
g112
(NNNtp117
sg111
(NNNtp118
sg114
(NNNtp119
sg113
(I1
NNtp120
ssg12
g13
sg14
S''
sg17
g102
sg18
g76
sg19
g20
sg25
(dp121
sg27
g105
sg28
g106
sg29
S''
sbsS'make'
p122
(ihappydoclib.parseinfo.functioninfo
FunctionInfo
p123
(dp124
g4
((dp125
(dp126
tp127
sg86
(dp128
S'aetools.Error, aetools.decodeerror( _arguments )'
p129
NsS"TypeError, 'No direct arg expected'"
p130
Nssg89
(S'self'
p131
S'_no_object'
p132
S'_attributes'
p133
S'**_arguments'
p134
tp135
sg95
(dp136
g131
(NNNtp137
sg134
(NNNtp138
sg132
(I1
NNtp139
sg133
(I1
NNtp140
ssg12
g13
sg14
S''
sg17
g122
sg18
g76
sg19
g20
sg25
(dp141
sg27
g125
sg28
g126
sg29
S''
sbsS'_print'
p142
(ihappydoclib.parseinfo.functioninfo
FunctionInfo
p143
(dp144
g4
((dp145
(dp146
tp147
sg86
(dp148
S'aetools.Error, aetools.decodeerror( _arguments )'
p149
NsS"TypeError, 'No optional args expected'"
p150
Nssg89
(S'self'
p151
S'_object'
p152
S'_attributes'
p153
S'**_arguments'
p154
tp155
sg95
(dp156
g152
(NNNtp157
sg151
(NNNtp158
sg154
(NNNtp159
sg153
(I1
NNtp160
ssg12
g13
sg14
S''
sg17
g142
sg18
g76
sg19
g20
sg25
(dp161
sg27
g145
sg28
g146
sg29
S''
sbsS'close'
p162
(ihappydoclib.parseinfo.functioninfo
FunctionInfo
p163
(dp164
g4
((dp165
(dp166
tp167
sg86
(dp168
S'aetools.Error, aetools.decodeerror( _arguments )'
p169
Nssg89
(S'self'
p170
S'_object'
p171
S'_attributes'
p172
S'**_arguments'
p173
tp174
sg95
(dp175
g171
(NNNtp176
sg170
(NNNtp177
sg173
(NNNtp178
sg172
(I1
NNtp179
ssg12
g13
sg14
S''
sg17
g162
sg18
g76
sg19
g20
sg25
(dp180
sg27
g165
sg28
g166
sg29
S''
sbsS'save'
p181
(ihappydoclib.parseinfo.functioninfo
FunctionInfo
p182
(dp183
g4
((dp184
(dp185
tp186
sg86
(dp187
S'aetools.Error, aetools.decodeerror( _arguments )'
p188
Nssg89
(S'self'
p189
S'_object'
p190
S'_attributes'
p191
S'**_arguments'
p192
tp193
sg95
(dp194
g190
(NNNtp195
sg189
(NNNtp196
sg192
(NNNtp197
sg191
(I1
NNtp198
ssg12
g13
sg14
S''
sg17
g181
sg18
g76
sg19
g20
sg25
(dp199
sg27
g184
sg28
g185
sg29
S''
sbsS'open'
p200
(ihappydoclib.parseinfo.functioninfo
FunctionInfo
p201
(dp202
g4
((dp203
(dp204
tp205
sg86
(dp206
S'aetools.Error, aetools.decodeerror( _arguments )'
p207
NsS"TypeError, 'No optional args expected'"
p208
Nssg89
(S'self'
p209
S'_object'
p210
S'_attributes'
p211
S'**_arguments'
p212
tp213
sg95
(dp214
g210
(NNNtp215
sg209
(NNNtp216
sg212
(NNNtp217
sg211
(I1
NNtp218
ssg12
g13
sg14
S''
sg17
g200
sg18
g76
sg19
g20
sg25
(dp219
sg27
g203
sg28
g204
sg29
S''
sbsS'data_size'
p220
(ihappydoclib.parseinfo.functioninfo
FunctionInfo
p221
(dp222
g4
((dp223
(dp224
tp225
sg86
(dp226
S'aetools.Error, aetools.decodeerror( _arguments )'
p227
NsS"TypeError, 'No optional args expected'"
p228
Nssg89
(S'self'
p229
S'_object'
p230
S'_attributes'
p231
S'**_arguments'
p232
tp233
sg95
(dp234
g230
(NNNtp235
sg229
(NNNtp236
sg232
(NNNtp237
sg231
(I1
NNtp238
ssg12
g13
sg14
S''
sg17
g220
sg18
g76
sg19
g20
sg25
(dp239
sg27
g223
sg28
g224
sg29
S''
sbstp240
sg12
g13
sg14
S''
sg15
(lp241
sg17
g75
sg18
g2
sg19
g20
sg23
(lp242
sg25
(dp243
sg27
g78
sg28
g79
sg29
S''
sbsS'application'
p244
(ihappydoclib.parseinfo.classinfo
ClassInfo
p245
(dp246
g4
((dp247
(dp248
tp249
sg12
g13
sg14
S''
sg15
(lp250
sg17
g244
sg18
g2
sg19
g20
sg23
(lp251
sg25
(dp252
sg27
g247
sg28
g248
sg29
S''
sbsS'window'
p253
(ihappydoclib.parseinfo.classinfo
ClassInfo
p254
(dp255
g4
((dp256
(dp257
tp258
sg12
g13
sg14
S''
sg15
(lp259
sg17
g253
sg18
g2
sg19
g20
sg23
(lp260
sg25
(dp261
sg27
g256
sg28
g257
sg29
S''
sbsS'zoomed'
p262
(ihappydoclib.parseinfo.classinfo
ClassInfo
p263
(dp264
g4
((dp265
(dp266
tp267
sg12
g13
sg14
S''
sg15
(lp268
sg17
g262
sg18
g2
sg19
g20
sg23
(lp269
sg25
(dp270
sg27
g265
sg28
g266
sg29
S''
sbsS'document'
p271
(ihappydoclib.parseinfo.classinfo
ClassInfo
p272
(dp273
g4
((dp274
(dp275
tp276
sg12
g13
sg14
S''
sg15
(lp277
sg17
g271
sg18
g2
sg19
g20
sg23
(lp278
sg25
(dp279
sg27
g274
sg28
g275
sg29
S''
sbsS'Miscellaneous_Events'
p280
(ihappydoclib.parseinfo.classinfo
ClassInfo
p281
(dp282
g4
((dp283
(dp284
S'do_script'
p285
(ihappydoclib.parseinfo.functioninfo
FunctionInfo
p286
(dp287
g4
((dp288
(dp289
tp290
sg86
(dp291
S'aetools.Error, aetools.decodeerror( _arguments )'
p292
NsS"TypeError, 'No optional args expected'"
p293
Nssg89
(S'self'
p294
S'_object'
p295
S'_attributes'
p296
S'**_arguments'
p297
tp298
sg95
(dp299
g295
(I1
NNtp300
sg294
(NNNtp301
sg297
(NNNtp302
sg296
(I1
NNtp303
ssg12
g13
sg14
S''
sg17
g285
sg18
g281
sg19
g20
sg25
(dp304
sg27
g288
sg28
g289
sg29
S''
sbsS'revert'
p305
(ihappydoclib.parseinfo.functioninfo
FunctionInfo
p306
(dp307
g4
((dp308
(dp309
tp310
sg86
(dp311
S'aetools.Error, aetools.decodeerror( _arguments )'
p312
NsS"TypeError, 'No optional args expected'"
p313
Nssg89
(S'self'
p314
S'_object'
p315
S'_attributes'
p316
S'**_arguments'
p317
tp318
sg95
(dp319
g315
(NNNtp320
sg314
(NNNtp321
sg317
(NNNtp322
sg316
(I1
NNtp323
ssg12
g13
sg14
S''
sg17
g305
sg18
g281
sg19
g20
sg25
(dp324
sg27
g308
sg28
g309
sg29
S''
sbstp325
sg12
g13
sg14
S''
sg15
(lp326
sg17
g280
sg18
g2
sg19
g20
sg23
(lp327
sg25
(dp328
sg27
g283
sg28
g284
sg29
S''
sbsS'picture'
p329
(ihappydoclib.parseinfo.classinfo
ClassInfo
p330
(dp331
g4
((dp332
(dp333
tp334
sg12
g13
sg14
S''
sg15
(lp335
sg17
g329
sg18
g2
sg19
g20
sg23
(lp336
sg25
(dp337
sg27
g332
sg28
g333
sg29
S''
sbsS'gnuplot_Suite'
p338
(ihappydoclib.parseinfo.classinfo
ClassInfo
p339
(dp340
g4
((dp341
(dp342
S'gnuexec'
p343
(ihappydoclib.parseinfo.functioninfo
FunctionInfo
p344
(dp345
g4
((dp346
(dp347
tp348
sg86
(dp349
S'aetools.Error, aetools.decodeerror( _arguments )'
p350
NsS"TypeError, 'No optional args expected'"
p351
Nssg89
(S'self'
p352
S'_object'
p353
S'_attributes'
p354
S'**_arguments'
p355
tp356
sg95
(dp357
g353
(I1
NNtp358
sg352
(NNNtp359
sg355
(NNNtp360
sg354
(I1
NNtp361
ssg12
g13
sg14
S''
sg17
g343
sg18
g339
sg19
g20
sg25
(dp362
sg27
g346
sg28
g347
sg29
S''
sbsS'plot'
p363
(ihappydoclib.parseinfo.functioninfo
FunctionInfo
p364
(dp365
g4
((dp366
(dp367
tp368
sg86
(dp369
S'aetools.Error, aetools.decodeerror( _arguments )'
p370
NsS"TypeError, 'No optional args expected'"
p371
Nssg89
(S'self'
p372
S'_object'
p373
S'_attributes'
p374
S'**_arguments'
p375
tp376
sg95
(dp377
g373
(I1
NNtp378
sg372
(NNNtp379
sg375
(NNNtp380
sg374
(I1
NNtp381
ssg12
g13
sg14
S''
sg17
g363
sg18
g339
sg19
g20
sg25
(dp382
sg27
g366
sg28
g367
sg29
S''
sbsS'splot'
p383
(ihappydoclib.parseinfo.functioninfo
FunctionInfo
p384
(dp385
g4
((dp386
(dp387
tp388
sg86
(dp389
S'aetools.Error, aetools.decodeerror( _arguments )'
p390
NsS"TypeError, 'No optional args expected'"
p391
Nssg89
(S'self'
p392
S'_object'
p393
S'_attributes'
p394
S'**_arguments'
p395
tp396
sg95
(dp397
g393
(I1
NNtp398
sg392
(NNNtp399
sg395
(NNNtp400
sg394
(I1
NNtp401
ssg12
g13
sg14
S''
sg17
g383
sg18
g339
sg19
g20
sg25
(dp402
sg27
g386
sg28
g387
sg29
S''
sbstp403
sg12
g13
sg14
S''
sg15
(lp404
sg17
g338
sg18
g2
sg19
g20
sg23
(lp405
sg25
(dp406
sg27
g341
sg28
g342
sg29
S''
sbsS'resizable'
p407
(ihappydoclib.parseinfo.classinfo
ClassInfo
p408
(dp409
g4
((dp410
(dp411
tp412
sg12
g13
sg14
S''
sg15
(lp413
sg17
g407
sg18
g2
sg19
g20
sg23
(lp414
sg25
(dp415
sg27
g410
sg28
g411
sg29
S''
sbsS'zoomable'
p416
(ihappydoclib.parseinfo.classinfo
ClassInfo
p417
(dp418
g4
((dp419
(dp420
tp421
sg12
g13
sg14
S''
sg15
(lp422
sg17
g416
sg18
g2
sg19
g20
sg23
(lp423
sg25
(dp424
sg27
g419
sg28
g420
sg29
S''
sbsS'name'
p425
(ihappydoclib.parseinfo.classinfo
ClassInfo
p426
(dp427
g4
((dp428
(dp429
tp430
sg12
g13
sg14
S''
sg15
(lp431
sg17
g425
sg18
g2
sg19
g20
sg23
(lp432
sg25
(dp433
sg27
g428
sg28
g429
sg29
S''
sbsS'bounds'
p434
(ihappydoclib.parseinfo.classinfo
ClassInfo
p435
(dp436
g4
((dp437
(dp438
tp439
sg12
g13
sg14
S''
sg15
(lp440
sg17
g434
sg18
g2
sg19
g20
sg23
(lp441
sg25
(dp442
sg27
g437
sg28
g438
sg29
S''
sbsS'odds_and_ends'
p443
(ihappydoclib.parseinfo.classinfo
ClassInfo
p444
(dp445
g4
((dp446
(dp447
S'select'
p448
(ihappydoclib.parseinfo.functioninfo
FunctionInfo
p449
(dp450
g4
((dp451
(dp452
tp453
sg86
(dp454
S'aetools.Error, aetools.decodeerror( _arguments )'
p455
NsS"TypeError, 'No optional args expected'"
p456
Nssg89
(S'self'
p457
S'_object'
p458
S'_attributes'
p459
S'**_arguments'
p460
tp461
sg95
(dp462
g458
(I1
NNtp463
sg457
(NNNtp464
sg460
(NNNtp465
sg459
(I1
NNtp466
ssg12
g13
sg14
S''
sg17
g448
sg18
g444
sg19
g20
sg25
(dp467
sg27
g451
sg28
g452
sg29
S''
sbstp468
sg12
g13
sg14
S''
sg15
(lp469
sg17
g443
sg18
g2
sg19
g20
sg23
(lp470
sg25
(dp471
sg27
g446
sg28
g447
sg29
S''
sbsS'modal'
p472
(ihappydoclib.parseinfo.classinfo
ClassInfo
p473
(dp474
g4
((dp475
(dp476
tp477
sg12
g13
sg14
S''
sg15
(lp478
sg17
g472
sg18
g2
sg19
g20
sg23
(lp479
sg25
(dp480
sg27
g475
sg28
g476
sg29
S''
sbsS'position'
p481
(ihappydoclib.parseinfo.classinfo
ClassInfo
p482
(dp483
g4
((dp484
(dp485
tp486
sg12
g13
sg14
S''
sg15
(lp487
sg17
g481
sg18
g2
sg19
g20
sg23
(lp488
sg25
(dp489
sg27
g484
sg28
g485
sg29
S''
sbsS'closeable'
p490
(ihappydoclib.parseinfo.classinfo
ClassInfo
p491
(dp492
g4
((dp493
(dp494
tp495
sg12
g13
sg14
S''
sg15
(lp496
sg17
g490
sg18
g2
sg19
g20
sg23
(lp497
sg25
(dp498
sg27
g493
sg28
g494
sg29
S''
sbs(dp499
tp500
sS'_import_info'
p501
(ihappydoclib.parseinfo.imports
ImportInfo
p502
(dp503
S'_named_imports'
p504
(dp505
sS'_straight_imports'
p506
(lp507
sbsg12
g13
sg14
S''
sg17
S'gnuplot_Suites'
p508
sg18
Nsg19
g20
sg25
(dp509
S'include_comments'
p510
I1
sS'cacheFilePrefix'
p511
S'.happydoc.'
p512
sS'useCache'
p513
I1
sS'docStringFormat'
p514
S'StructuredText'
p515
ssg27
g5
sg28
g499
sg29
S''
sbt.