(S'a1efc500dd62886a68391f573c2847fe'
p1
(ihappydoclib.parseinfo.moduleinfo
ModuleInfo
p2
(dp3
S'_namespaces'
p4
((dp5
S'Gnuplot'
p6
(ihappydoclib.parseinfo.classinfo
ClassInfo
p7
(dp8
g4
((dp9
(dp10
S'load'
p11
(ihappydoclib.parseinfo.functioninfo
FunctionInfo
p12
(dp13
g4
((dp14
(dp15
tp16
sS'_exception_info'
p17
(dp18
sS'_parameter_names'
p19
(S'self'
p20
S'filename'
p21
tp22
sS'_parameter_info'
p23
(dp24
g20
(NNNtp25
sg21
(NNNtp26
ssS'_filename'
p27
S'Gnuplot/_Gnuplot.py'
p28
sS'_docstring'
p29
S''
sS'_name'
p30
g11
sS'_parent'
p31
g7
sS'_comment_info'
p32
(dp33
sS'_configuration_values'
p34
(dp35
sS'_class_info'
p36
g14
sS'_function_info'
p37
g15
sS'_comments'
p38
S''
sbsS'set'
p39
(ihappydoclib.parseinfo.functioninfo
FunctionInfo
p40
(dp41
g4
((dp42
(dp43
tp44
sg17
(dp45
S"'option %s is not supported' %( k, )"
p46
Nssg19
(S'self'
p47
S'**keyw'
p48
tp49
sg23
(dp50
g47
(NNNtp51
sg48
(NNNtp52
ssg27
g28
sg29
S''
sg30
g39
sg31
g7
sg32
g33
sg34
(dp53
sg36
g42
sg37
g43
sg38
S''
sbsS'_add_to_queue'
p54
(ihappydoclib.parseinfo.functioninfo
FunctionInfo
p55
(dp56
g4
((dp57
(dp58
tp59
sg17
(dp60
sg19
(S'self'
p61
S'items'
p62
tp63
sg23
(dp64
g62
(NNNtp65
sg61
(NNNtp66
ssg27
g28
sg29
S''
sg30
g54
sg31
g7
sg32
g33
sg34
(dp67
sg36
g57
sg37
g58
sg38
S''
sbsS'replot'
p68
(ihappydoclib.parseinfo.functioninfo
FunctionInfo
p69
(dp70
g4
((dp71
(dp72
tp73
sg17
(dp74
sg19
(S'self'
p75
S'*items'
p76
S'*keyw'
p77
tp78
sg23
(dp79
g76
(NNNtp80
sg75
(NNNtp81
sg77
(NNNtp82
ssg27
g28
sg29
S''
sg30
g68
sg31
g7
sg32
g33
sg34
(dp83
sg36
g71
sg37
g72
sg38
S''
sbsS'set_label'
p84
(ihappydoclib.parseinfo.functioninfo
FunctionInfo
p85
(dp86
g4
((dp87
(dp88
tp89
sg17
(dp90
sg19
(S'self'
p91
S'option'
p92
S's'
S'offset'
p93
S'font'
p94
tp95
sg23
(dp96
S's'
(I1
NNtp97
sg91
(NNNtp98
sg94
(I1
NNtp99
sg92
(NNNtp100
sg93
(I1
NNtp101
ssg27
g28
sg29
S''
sg30
g84
sg31
g7
sg32
g33
sg34
(dp102
sg36
g87
sg37
g88
sg38
S''
sbsS'set_boolean'
p103
(ihappydoclib.parseinfo.functioninfo
FunctionInfo
p104
(dp105
g4
((dp106
(dp107
tp108
sg17
(dp109
sg19
(S'self'
p110
S'option'
p111
S'value'
p112
tp113
sg23
(dp114
g110
(NNNtp115
sg111
(NNNtp116
sg112
(NNNtp117
ssg27
g28
sg29
S''
sg30
g103
sg31
g7
sg32
g33
sg34
(dp118
sg36
g106
sg37
g107
sg38
S''
sbsS'close'
p119
(ihappydoclib.parseinfo.functioninfo
FunctionInfo
p120
(dp121
g4
((dp122
(dp123
tp124
sg17
(dp125
sg19
(S'self'
p126
tp127
sg23
(dp128
g126
(NNNtp129
ssg27
g28
sg29
S''
sg30
g119
sg31
g7
sg32
g33
sg34
(dp130
sg36
g122
sg37
g123
sg38
S''
sbsS'__init__'
p131
(ihappydoclib.parseinfo.functioninfo
FunctionInfo
p132
(dp133
g4
((dp134
(dp135
tp136
sg17
(dp137
S"Errors.OptionError( 'Gnuplot with output to file does not allow ' 'persist option.' )"
p138
Nssg19
(S'self'
p139
S'filename'
p140
S'persist'
p141
S'debug'
p142
tp143
sg23
(dp144
g142
(I1
NNtp145
sg139
(NNNtp146
sg141
(I1
NNtp147
sg140
(I1
NNtp148
ssg27
g28
sg29
S''
sg30
g131
sg31
g7
sg32
g33
sg34
(dp149
sg36
g134
sg37
g135
sg38
S''
sbsS'plot'
p150
(ihappydoclib.parseinfo.functioninfo
FunctionInfo
p151
(dp152
g4
((dp153
(dp154
tp155
sg17
(dp156
sg19
(S'self'
p157
S'*items'
p158
S'*keyw'
p159
tp160
sg23
(dp161
g158
(NNNtp162
sg157
(NNNtp163
sg159
(NNNtp164
ssg27
g28
sg29
S''
sg30
g150
sg31
g7
sg32
g33
sg34
(dp165
sg36
g153
sg37
g154
sg38
S''
sbsS'set_range'
p166
(ihappydoclib.parseinfo.functioninfo
FunctionInfo
p167
(dp168
g4
((dp169
(dp170
tp171
sg17
(dp172
sg19
(S'self'
p173
S'option'
p174
S'value'
p175
tp176
sg23
(dp177
g173
(NNNtp178
sg174
(NNNtp179
sg175
(NNNtp180
ssg27
g28
sg29
S''
sg30
g166
sg31
g7
sg32
g33
sg34
(dp181
sg36
g169
sg37
g170
sg38
S''
sbsS'interact'
p182
(ihappydoclib.parseinfo.functioninfo
FunctionInfo
p183
(dp184
g4
((dp185
(dp186
tp187
sg17
(dp188
sg19
(S'self'
p189
tp190
sg23
(dp191
g189
(NNNtp192
ssg27
g28
sg29
S''
sg30
g182
sg31
g7
sg32
g33
sg34
(dp193
sg36
g185
sg37
g186
sg38
S''
sbsS'ylabel'
p194
(ihappydoclib.parseinfo.functioninfo
FunctionInfo
p195
(dp196
g4
((dp197
(dp198
tp199
sg17
(dp200
sg19
(S'self'
p201
S's'
S'offset'
p202
S'font'
p203
tp204
sg23
(dp205
g201
(NNNtp206
sg203
(I1
NNtp207
sS's'
(I1
NNtp208
sg202
(I1
NNtp209
ssg27
g28
sg29
S''
sg30
g194
sg31
g7
sg32
g33
sg34
(dp210
sg36
g197
sg37
g198
sg38
S''
sbsS'__call__'
p211
(ihappydoclib.parseinfo.functioninfo
FunctionInfo
p212
(dp213
g4
((dp214
(dp215
tp216
sg17
(dp217
sg19
(S'self'
p218
S's'
tp219
sg23
(dp220
g218
(NNNtp221
sS's'
(NNNtp222
ssg27
g28
sg29
S''
sg30
g211
sg31
g7
sg32
g33
sg34
(dp223
sg36
g214
sg37
g215
sg38
S''
sbsS'save'
p224
(ihappydoclib.parseinfo.functioninfo
FunctionInfo
p225
(dp226
g4
((dp227
(dp228
tp229
sg17
(dp230
sg19
(S'self'
p231
S'filename'
p232
tp233
sg23
(dp234
g231
(NNNtp235
sg232
(NNNtp236
ssg27
g28
sg29
S''
sg30
g224
sg31
g7
sg32
g33
sg34
(dp237
sg36
g227
sg37
g228
sg38
S''
sbsS'__del__'
p238
(ihappydoclib.parseinfo.functioninfo
FunctionInfo
p239
(dp240
g4
((dp241
(dp242
tp243
sg17
(dp244
sg19
(S'self'
p245
tp246
sg23
(dp247
g245
(NNNtp248
ssg27
g28
sg29
S''
sg30
g238
sg31
g7
sg32
g33
sg34
(dp249
sg36
g241
sg37
g242
sg38
S''
sbsS'zlabel'
p250
(ihappydoclib.parseinfo.functioninfo
FunctionInfo
p251
(dp252
g4
((dp253
(dp254
tp255
sg17
(dp256
sg19
(S'self'
p257
S's'
S'offset'
p258
S'font'
p259
tp260
sg23
(dp261
g257
(NNNtp262
sg259
(I1
NNtp263
sS's'
(I1
NNtp264
sg258
(I1
NNtp265
ssg27
g28
sg29
S''
sg30
g250
sg31
g7
sg32
g33
sg34
(dp266
sg36
g253
sg37
g254
sg38
S''
sbsS'hardcopy'
p267
(ihappydoclib.parseinfo.functioninfo
FunctionInfo
p268
(dp269
g4
((dp270
(dp271
tp272
sg17
(dp273
S'Errors.OptionError(\'Terminal "%s" is not configured in Gnuplot.py.\' %( terminal, ) )'
p274
NsS"Errors.OptionError( 'default_lpr is not set, so you can only print to a file.' )"
p275
NsS"Errors.OptionError('The following options are unrecognized: %s' %( string.join( keyw.keys(), ', ' ), ) )"
p276
Nssg19
(S'self'
p277
S'filename'
p278
S'terminal'
p279
S'**keyw'
p280
tp281
sg23
(dp282
g279
(I1
NNtp283
sg277
(NNNtp284
sg280
(NNNtp285
sg278
(I1
NNtp286
ssg27
g28
sg29
S''
sg30
g267
sg31
g7
sg32
g33
sg34
(dp287
sg36
g270
sg37
g271
sg38
S''
sbsS'splot'
p288
(ihappydoclib.parseinfo.functioninfo
FunctionInfo
p289
(dp290
g4
((dp291
(dp292
tp293
sg17
(dp294
sg19
(S'self'
p295
S'*items'
p296
S'*keyw'
p297
tp298
sg23
(dp299
g296
(NNNtp300
sg295
(NNNtp301
sg297
(NNNtp302
ssg27
g28
sg29
S''
sg30
g288
sg31
g7
sg32
g33
sg34
(dp303
sg36
g291
sg37
g292
sg38
S''
sbsS'set_string'
p304
(ihappydoclib.parseinfo.functioninfo
FunctionInfo
p305
(dp306
g4
((dp307
(dp308
tp309
sg17
(dp310
sg19
(S'self'
p311
S'option'
p312
S's'
tp313
sg23
(dp314
S's'
(I1
NNtp315
sg311
(NNNtp316
sg312
(NNNtp317
ssg27
g28
sg29
S''
sg30
g304
sg31
g7
sg32
g33
sg34
(dp318
sg36
g307
sg37
g308
sg38
S''
sbsS'_clear_queue'
p319
(ihappydoclib.parseinfo.functioninfo
FunctionInfo
p320
(dp321
g4
((dp322
(dp323
tp324
sg17
(dp325
sg19
(S'self'
p326
tp327
sg23
(dp328
g326
(NNNtp329
ssg27
g28
sg29
S''
sg30
g319
sg31
g7
sg32
g33
sg34
(dp330
sg36
g322
sg37
g323
sg38
S''
sbsS'reset'
p331
(ihappydoclib.parseinfo.functioninfo
FunctionInfo
p332
(dp333
g4
((dp334
(dp335
tp336
sg17
(dp337
sg19
(S'self'
p338
tp339
sg23
(dp340
g338
(NNNtp341
ssg27
g28
sg29
S''
sg30
g331
sg31
g7
sg32
g33
sg34
(dp342
sg36
g334
sg37
g335
sg38
S''
sbsS'clear'
p343
(ihappydoclib.parseinfo.functioninfo
FunctionInfo
p344
(dp345
g4
((dp346
(dp347
tp348
sg17
(dp349
sg19
(S'self'
p350
tp351
sg23
(dp352
g350
(NNNtp353
ssg27
g28
sg29
S''
sg30
g343
sg31
g7
sg32
g33
sg34
(dp354
sg36
g346
sg37
g347
sg38
S''
sbsS'title'
p355
(ihappydoclib.parseinfo.functioninfo
FunctionInfo
p356
(dp357
g4
((dp358
(dp359
tp360
sg17
(dp361
sg19
(S'self'
p362
S's'
S'offset'
p363
S'font'
p364
tp365
sg23
(dp366
g362
(NNNtp367
sg364
(I1
NNtp368
sS's'
(I1
NNtp369
sg363
(I1
NNtp370
ssg27
g28
sg29
S''
sg30
g355
sg31
g7
sg32
g33
sg34
(dp371
sg36
g358
sg37
g359
sg38
S''
sbsS'refresh'
p372
(ihappydoclib.parseinfo.functioninfo
FunctionInfo
p373
(dp374
g4
((dp375
(dp376
tp377
sg17
(dp378
sg19
(S'self'
p379
tp380
sg23
(dp381
g379
(NNNtp382
ssg27
g28
sg29
S''
sg30
g372
sg31
g7
sg32
g33
sg34
(dp383
sg36
g375
sg37
g376
sg38
S''
sbsS'xlabel'
p384
(ihappydoclib.parseinfo.functioninfo
FunctionInfo
p385
(dp386
g4
((dp387
(dp388
tp389
sg17
(dp390
sg19
(S'self'
p391
S's'
S'offset'
p392
S'font'
p393
tp394
sg23
(dp395
g391
(NNNtp396
sg393
(I1
NNtp397
sS's'
(I1
NNtp398
sg392
(I1
NNtp399
ssg27
g28
sg29
S''
sg30
g384
sg31
g7
sg32
g33
sg34
(dp400
sg36
g387
sg37
g388
sg38
S''
sbstp401
sg27
g28
sg29
S''
sS'_class_member_info'
p402
(lp403
sg30
g6
sg31
g2
sg32
g33
sS'_base_class_info'
p404
(lp405
sg34
(dp406
sg36
g9
sg37
g10
sg38
S''
sbsS'_GnuplotFile'
p407
(ihappydoclib.parseinfo.classinfo
ClassInfo
p408
(dp409
g4
((dp410
(dp411
S'__call__'
p412
(ihappydoclib.parseinfo.functioninfo
FunctionInfo
p413
(dp414
g4
((dp415
(dp416
tp417
sg17
(dp418
sg19
(S'self'
p419
S's'
tp420
sg23
(dp421
g419
(NNNtp422
sS's'
(NNNtp423
ssg27
g28
sg29
S''
sg30
g412
sg31
g408
sg32
g33
sg34
(dp424
sg36
g415
sg37
g416
sg38
S''
sbsS'__init__'
p425
(ihappydoclib.parseinfo.functioninfo
FunctionInfo
p426
(dp427
g4
((dp428
(dp429
tp430
sg17
(dp431
sg19
(S'self'
p432
S'filename'
p433
tp434
sg23
(dp435
g432
(NNNtp436
sg433
(NNNtp437
ssg27
g28
sg29
S''
sg30
g425
sg31
g408
sg32
g33
sg34
(dp438
sg36
g428
sg37
g429
sg38
S''
sbstp439
sg27
g28
sg29
S''
sg402
(lp440
sg30
g407
sg31
g2
sg32
g33
sg404
(lp441
sg34
(dp442
sg36
g410
sg37
g411
sg38
S''
sbs(dp443
tp444
sS'_import_info'
p445
(ihappydoclib.parseinfo.imports
ImportInfo
p446
(dp447
S'_named_imports'
p448
(dp449
sS'_straight_imports'
p450
(lp451
sbsg27
g28
sg29
S''
sg30
S'_Gnuplot'
p452
sg31
Nsg32
g33
sg34
(dp453
S'include_comments'
p454
I1
sS'cacheFilePrefix'
p455
S'.happydoc.'
p456
sS'useCache'
p457
I1
sS'docStringFormat'
p458
S'StructuredText'
p459
ssg36
g5
sg37
g443
sg38
S''
sbt.