(S'461bbf48748094829e6baf2c7582e86d'
p1
(ihappydoclib.parseinfo.moduleinfo
ModuleInfo
p2
(dp3
S'_namespaces'
p4
((dp5
S'DataError'
p6
(ihappydoclib.parseinfo.classinfo
ClassInfo
p7
(dp8
g4
((dp9
(dp10
tp11
sS'_filename'
p12
S'Gnuplot/Errors.py'
p13
sS'_docstring'
p14
S''
sS'_class_member_info'
p15
(lp16
sS'_name'
p17
g6
sS'_parent'
p18
g2
sS'_comment_info'
p19
(dp20
sS'_base_class_info'
p21
(lp22
sS'_configuration_values'
p23
(dp24
sS'_class_info'
p25
g9
sS'_function_info'
p26
g10
sS'_comments'
p27
S''
sbsS'OptionError'
p28
(ihappydoclib.parseinfo.classinfo
ClassInfo
p29
(dp30
g4
((dp31
(dp32
tp33
sg12
g13
sg14
S''
sg15
(lp34
sg17
g28
sg18
g2
sg19
g20
sg21
(lp35
sg23
(dp36
sg25
g31
sg26
g32
sg27
S''
sbsS'Error'
p37
(ihappydoclib.parseinfo.classinfo
ClassInfo
p38
(dp39
g4
((dp40
(dp41
tp42
sg12
g13
sg14
S''
sg15
(lp43
sg17
g37
sg18
g2
sg19
g20
sg21
(lp44
sg23
(dp45
sg25
g40
sg26
g41
sg27
S''
sbs(dp46
tp47
sS'_import_info'
p48
(ihappydoclib.parseinfo.imports
ImportInfo
p49
(dp50
S'_named_imports'
p51
(dp52
sS'_straight_imports'
p53
(lp54
sbsg12
g13
sg14
S''
sg17
S'Errors'
p55
sg18
Nsg19
g20
sg23
(dp56
S'include_comments'
p57
I1
sS'cacheFilePrefix'
p58
S'.happydoc.'
p59
sS'useCache'
p60
I1
sS'docStringFormat'
p61
S'StructuredText'
p62
ssg25
g5
sg26
g46
sg27
S''
sbt.