(S'91330031d22e14e5d17c08ed3ce0a985'
p1
(ihappydoclib.parseinfo.moduleinfo
ModuleInfo
p2
(dp3
S'_namespaces'
p4
((dp5
(dp6
S'demo'
p7
(ihappydoclib.parseinfo.functioninfo
FunctionInfo
p8
(dp9
g4
((dp10
(dp11
S'f'
(ihappydoclib.parseinfo.functioninfo
FunctionInfo
p12
(dp13
g4
((dp14
(dp15
tp16
sS'_exception_info'
p17
(dp18
sS'_parameter_names'
p19
(S'x'
S'y'
tp20
sS'_parameter_info'
p21
(dp22
S'y'
(NNNtp23
sS'x'
(NNNtp24
ssS'_filename'
p25
S'Gnuplot/demo.py'
p26
sS'_docstring'
p27
S''
sS'_name'
p28
S'f'
sS'_parent'
p29
g8
sS'_comment_info'
p30
(dp31
(S'demo'
S'f'
tp32
S' plot another function, but letting GridFunc tabulate its values\n automatically.  f could also be a lambda or a global function:\n'
p33
ssS'_configuration_values'
p34
(dp35
sS'_class_info'
p36
g14
sS'_function_info'
p37
g15
sS'_comments'
p38
g33
sbstp39
sg17
(dp40
sg19
(tsg21
(dp41
sg25
g26
sg27
S''
sg28
g7
sg29
g2
sg30
g31
sg34
(dp42
sg36
g10
sg37
g11
sg38
S''
sbstp43
sS'_import_info'
p44
(ihappydoclib.parseinfo.imports
ImportInfo
p45
(dp46
S'_named_imports'
p47
(dp48
sS'_straight_imports'
p49
(lp50
sbsg25
g26
sg27
S''
sg28
S'demo'
p51
sg29
Nsg30
g31
sg34
(dp52
S'include_comments'
p53
I1
sS'cacheFilePrefix'
p54
S'.happydoc.'
p55
sS'useCache'
p56
I1
sS'docStringFormat'
p57
S'StructuredText'
p58
ssg36
g5
sg37
g6
sg38
S''
sbt.